target datalayout = "e-m:e-p270:32:32-p271:32:32-p272:64:64-i64:64-i128:128-f80:128-n8:16:32:64-S128"
target triple = "x86_64-pc-linux-gnu"

@_ZL9DECPOWERS = internal constant [10 x i32] [i32 1, i32 10, i32 100, i32 1000, i32 10000, i32 100000, i32 1000000, i32 10000000, i32 100000000, i32 1000000000], align 16
@_ZL8d2utable = internal constant [50 x i8] c"\00\01\02\03\04\05\06\07\08\09\0A\0B\0C\0D\0E\0F\10\11\12\13\14\15\16\17\18\19\1A\1B\1C\1D\1E\1F !\22#$%&'()*+,-./01", align 16
@_ZL7multies = internal constant [5 x i32] [i32 131073, i32 26215, i32 5243, i32 1049, i32 210], align 16

; Function Attrs: mustprogress nounwind uwtable
define internal noundef i32 @_ZL14decShiftToMostPhii(ptr noundef %0, i32 noundef %1, i32 noundef %2) #2 {
  %4 = alloca i32, align 4
  %5 = alloca ptr, align 8
  %6 = alloca i32, align 4
  %7 = alloca i32, align 4
  %8 = alloca ptr, align 8
  %9 = alloca ptr, align 8
  %10 = alloca ptr, align 8
  %11 = alloca i32, align 4
  %12 = alloca i32, align 4
  %13 = alloca i32, align 4
  %14 = alloca i32, align 4
  %15 = alloca i32, align 4
  store ptr %0, ptr %5, align 8, !tbaa !11
  store i32 %1, ptr %6, align 4, !tbaa !7
  store i32 %2, ptr %7, align 4, !tbaa !7
  call void @llvm.lifetime.start.p0(i64 8, ptr %8) #8
  call void @llvm.lifetime.start.p0(i64 8, ptr %9) #8
  call void @llvm.lifetime.start.p0(i64 8, ptr %10) #8
  call void @llvm.lifetime.start.p0(i64 4, ptr %11) #8
  call void @llvm.lifetime.start.p0(i64 4, ptr %12) #8
  %16 = load i32, ptr %7, align 4, !tbaa !7
  %17 = icmp eq i32 %16, 0
  br i1 %17, label %18, label %20

18:                                               ; preds = %3
  %19 = load i32, ptr %6, align 4, !tbaa !7
  store i32 %19, ptr %4, align 4
  store i32 1, ptr %13, align 4
  br label %206

20:                                               ; preds = %3
  %21 = load i32, ptr %6, align 4, !tbaa !7
  %22 = load i32, ptr %7, align 4, !tbaa !7
  %23 = add nsw i32 %21, %22
  %24 = icmp sle i32 %23, 1
  br i1 %24, label %25, label %39

25:                                               ; preds = %20
  %26 = load ptr, ptr %5, align 8, !tbaa !11
  %27 = load i8, ptr %26, align 1, !tbaa !13
  %28 = zext i8 %27 to i32
  %29 = load i32, ptr %7, align 4, !tbaa !7
  %30 = sext i32 %29 to i64
  %31 = getelementptr inbounds [10 x i32], ptr @_ZL9DECPOWERS, i64 0, i64 %30
  %32 = load i32, ptr %31, align 4, !tbaa !7
  %33 = mul i32 %28, %32
  %34 = trunc i32 %33 to i8
  %35 = load ptr, ptr %5, align 8, !tbaa !11
  store i8 %34, ptr %35, align 1, !tbaa !13
  %36 = load i32, ptr %6, align 4, !tbaa !7
  %37 = load i32, ptr %7, align 4, !tbaa !7
  %38 = add nsw i32 %36, %37
  store i32 %38, ptr %4, align 4
  store i32 1, ptr %13, align 4
  br label %206

39:                                               ; preds = %20
  store i32 0, ptr %12, align 4, !tbaa !7
  %40 = load ptr, ptr %5, align 8, !tbaa !11
  %41 = load i32, ptr %6, align 4, !tbaa !7
  %42 = icmp sle i32 %41, 49
  br i1 %42, label %43, label %49

43:                                               ; preds = %39
  %44 = load i32, ptr %6, align 4, !tbaa !7
  %45 = sext i32 %44 to i64
  %46 = getelementptr inbounds [50 x i8], ptr @_ZL8d2utable, i64 0, i64 %45
  %47 = load i8, ptr %46, align 1, !tbaa !13
  %48 = zext i8 %47 to i32
  br label %54

49:                                               ; preds = %39
  %50 = load i32, ptr %6, align 4, !tbaa !7
  %51 = add nsw i32 %50, 1
  %52 = sub nsw i32 %51, 1
  %53 = sdiv i32 %52, 1
  br label %54

54:                                               ; preds = %49, %43
  %55 = phi i32 [ %48, %43 ], [ %53, %49 ]
  %56 = sext i32 %55 to i64
  %57 = getelementptr inbounds i8, ptr %40, i64 %56
  %58 = getelementptr inbounds i8, ptr %57, i64 -1
  store ptr %58, ptr %9, align 8, !tbaa !11
  %59 = load ptr, ptr %9, align 8, !tbaa !11
  %60 = load i32, ptr %7, align 4, !tbaa !7
  %61 = icmp sle i32 %60, 49
  br i1 %61, label %62, label %68

62:                                               ; preds = %54
  %63 = load i32, ptr %7, align 4, !tbaa !7
  %64 = sext i32 %63 to i64
  %65 = getelementptr inbounds [50 x i8], ptr @_ZL8d2utable, i64 0, i64 %64
  %66 = load i8, ptr %65, align 1, !tbaa !13
  %67 = zext i8 %66 to i32
  br label %73

68:                                               ; preds = %54
  %69 = load i32, ptr %7, align 4, !tbaa !7
  %70 = add nsw i32 %69, 1
  %71 = sub nsw i32 %70, 1
  %72 = sdiv i32 %71, 1
  br label %73

73:                                               ; preds = %68, %62
  %74 = phi i32 [ %67, %62 ], [ %72, %68 ]
  %75 = sext i32 %74 to i64
  %76 = getelementptr inbounds i8, ptr %59, i64 %75
  store ptr %76, ptr %8, align 8, !tbaa !11
  %77 = load i32, ptr %7, align 4, !tbaa !7
  %78 = load i32, ptr %7, align 4, !tbaa !7
  %79 = icmp sle i32 %78, 49
  br i1 %79, label %80, label %86

80:                                               ; preds = %73
  %81 = load i32, ptr %7, align 4, !tbaa !7
  %82 = sext i32 %81 to i64
  %83 = getelementptr inbounds [50 x i8], ptr @_ZL8d2utable, i64 0, i64 %82
  %84 = load i8, ptr %83, align 1, !tbaa !13
  %85 = zext i8 %84 to i32
  br label %91

86:                                               ; preds = %73
  %87 = load i32, ptr %7, align 4, !tbaa !7
  %88 = add nsw i32 %87, 1
  %89 = sub nsw i32 %88, 1
  %90 = sdiv i32 %89, 1
  br label %91

91:                                               ; preds = %86, %80
  %92 = phi i32 [ %85, %80 ], [ %90, %86 ]
  %93 = sub nsw i32 %92, 1
  %94 = mul nsw i32 %93, 1
  %95 = sub nsw i32 %77, %94
  %96 = sub nsw i32 1, %95
  store i32 %96, ptr %11, align 4, !tbaa !7
  %97 = load i32, ptr %11, align 4, !tbaa !7
  %98 = icmp eq i32 %97, 0
  br i1 %98, label %99, label %114

99:                                               ; preds = %91
  br label %100

100:                                              ; preds = %108, %99
  %101 = load ptr, ptr %9, align 8, !tbaa !11
  %102 = load ptr, ptr %5, align 8, !tbaa !11
  %103 = icmp uge ptr %101, %102
  br i1 %103, label %104, label %113

104:                                              ; preds = %100
  %105 = load ptr, ptr %9, align 8, !tbaa !11
  %106 = load i8, ptr %105, align 1, !tbaa !13
  %107 = load ptr, ptr %8, align 8, !tbaa !11
  store i8 %106, ptr %107, align 1, !tbaa !13
  br label %108

108:                                              ; preds = %104
  %109 = load ptr, ptr %9, align 8, !tbaa !11
  %110 = getelementptr inbounds i8, ptr %109, i32 -1
  store ptr %110, ptr %9, align 8, !tbaa !11
  %111 = load ptr, ptr %8, align 8, !tbaa !11
  %112 = getelementptr inbounds i8, ptr %111, i32 -1
  store ptr %112, ptr %8, align 8, !tbaa !11
  br label %100, !llvm.loop !95

113:                                              ; preds = %100
  br label %190

114:                                              ; preds = %91
  %115 = load ptr, ptr %5, align 8, !tbaa !11
  %116 = load i32, ptr %6, align 4, !tbaa !7
  %117 = load i32, ptr %7, align 4, !tbaa !7
  %118 = add nsw i32 %116, %117
  %119 = icmp sle i32 %118, 49
  br i1 %119, label %120, label %128

120:                                              ; preds = %114
  %121 = load i32, ptr %6, align 4, !tbaa !7
  %122 = load i32, ptr %7, align 4, !tbaa !7
  %123 = add nsw i32 %121, %122
  %124 = sext i32 %123 to i64
  %125 = getelementptr inbounds [50 x i8], ptr @_ZL8d2utable, i64 0, i64 %124
  %126 = load i8, ptr %125, align 1, !tbaa !13
  %127 = zext i8 %126 to i32
  br label %135

128:                                              ; preds = %114
  %129 = load i32, ptr %6, align 4, !tbaa !7
  %130 = load i32, ptr %7, align 4, !tbaa !7
  %131 = add nsw i32 %129, %130
  %132 = add nsw i32 %131, 1
  %133 = sub nsw i32 %132, 1
  %134 = sdiv i32 %133, 1
  br label %135

135:                                              ; preds = %128, %120
  %136 = phi i32 [ %127, %120 ], [ %134, %128 ]
  %137 = sext i32 %136 to i64
  %138 = getelementptr inbounds i8, ptr %115, i64 %137
  %139 = getelementptr inbounds i8, ptr %138, i64 -1
  store ptr %139, ptr %10, align 8, !tbaa !11
  br label %140

140:                                              ; preds = %184, %135
  %141 = load ptr, ptr %9, align 8, !tbaa !11
  %142 = load ptr, ptr %5, align 8, !tbaa !11
  %143 = icmp uge ptr %141, %142
  br i1 %143, label %144, label %189

144:                                              ; preds = %140
  call void @llvm.lifetime.start.p0(i64 4, ptr %14) #8
  %145 = load ptr, ptr %9, align 8, !tbaa !11
  %146 = load i8, ptr %145, align 1, !tbaa !13
  %147 = zext i8 %146 to i32
  %148 = load i32, ptr %11, align 4, !tbaa !7
  %149 = lshr i32 %147, %148
  %150 = load i32, ptr %11, align 4, !tbaa !7
  %151 = sext i32 %150 to i64
  %152 = getelementptr inbounds [5 x i32], ptr @_ZL7multies, i64 0, i64 %151
  %153 = load i32, ptr %152, align 4, !tbaa !7
  %154 = mul i32 %149, %153
  %155 = lshr i32 %154, 17
  store i32 %155, ptr %14, align 4, !tbaa !7
  call void @llvm.lifetime.start.p0(i64 4, ptr %15) #8
  %156 = load ptr, ptr %9, align 8, !tbaa !11
  %157 = load i8, ptr %156, align 1, !tbaa !13
  %158 = zext i8 %157 to i32
  %159 = load i32, ptr %14, align 4, !tbaa !7
  %160 = load i32, ptr %11, align 4, !tbaa !7
  %161 = sext i32 %160 to i64
  %162 = getelementptr inbounds [10 x i32], ptr @_ZL9DECPOWERS, i64 0, i64 %161
  %163 = load i32, ptr %162, align 4, !tbaa !7
  %164 = mul i32 %159, %163
  %165 = sub i32 %158, %164
  store i32 %165, ptr %15, align 4, !tbaa !7
  %166 = load i32, ptr %14, align 4, !tbaa !7
  %167 = load i32, ptr %12, align 4, !tbaa !7
  %168 = add i32 %167, %166
  store i32 %168, ptr %12, align 4, !tbaa !7
  %169 = load ptr, ptr %8, align 8, !tbaa !11
  %170 = load ptr, ptr %10, align 8, !tbaa !11
  %171 = icmp ule ptr %169, %170
  br i1 %171, label %172, label %176

172:                                              ; preds = %144
  %173 = load i32, ptr %12, align 4, !tbaa !7
  %174 = trunc i32 %173 to i8
  %175 = load ptr, ptr %8, align 8, !tbaa !11
  store i8 %174, ptr %175, align 1, !tbaa !13
  br label %176

176:                                              ; preds = %172, %144
  %177 = load i32, ptr %15, align 4, !tbaa !7
  %178 = load i32, ptr %11, align 4, !tbaa !7
  %179 = sub nsw i32 1, %178
  %180 = sext i32 %179 to i64
  %181 = getelementptr inbounds [10 x i32], ptr @_ZL9DECPOWERS, i64 0, i64 %180
  %182 = load i32, ptr %181, align 4, !tbaa !7
  %183 = mul i32 %177, %182
  store i32 %183, ptr %12, align 4, !tbaa !7
  call void @llvm.lifetime.end.p0(i64 4, ptr %15) #8
  call void @llvm.lifetime.end.p0(i64 4, ptr %14) #8
  br label %184

184:                                              ; preds = %176
  %185 = load ptr, ptr %9, align 8, !tbaa !11
  %186 = getelementptr inbounds i8, ptr %185, i32 -1
  store ptr %186, ptr %9, align 8, !tbaa !11
  %187 = load ptr, ptr %8, align 8, !tbaa !11
  %188 = getelementptr inbounds i8, ptr %187, i32 -1
  store ptr %188, ptr %8, align 8, !tbaa !11
  br label %140, !llvm.loop !96

189:                                              ; preds = %140
  br label %190

190:                                              ; preds = %189, %113
  br label %191

191:                                              ; preds = %199, %190
  %192 = load ptr, ptr %8, align 8, !tbaa !11
  %193 = load ptr, ptr %5, align 8, !tbaa !11
  %194 = icmp uge ptr %192, %193
  br i1 %194, label %195, label %202

195:                                              ; preds = %191
  %196 = load i32, ptr %12, align 4, !tbaa !7
  %197 = trunc i32 %196 to i8
  %198 = load ptr, ptr %8, align 8, !tbaa !11
  store i8 %197, ptr %198, align 1, !tbaa !13
  store i32 0, ptr %12, align 4, !tbaa !7
  br label %199

199:                                              ; preds = %195
  %200 = load ptr, ptr %8, align 8, !tbaa !11
  %201 = getelementptr inbounds i8, ptr %200, i32 -1
  store ptr %201, ptr %8, align 8, !tbaa !11
  br label %191, !llvm.loop !97

202:                                              ; preds = %191
  %203 = load i32, ptr %6, align 4, !tbaa !7
  %204 = load i32, ptr %7, align 4, !tbaa !7
  %205 = add nsw i32 %203, %204
  store i32 %205, ptr %4, align 4
  store i32 1, ptr %13, align 4
  br label %206

206:                                              ; preds = %202, %25, %18
  call void @llvm.lifetime.end.p0(i64 4, ptr %12) #8
  call void @llvm.lifetime.end.p0(i64 4, ptr %11) #8
  call void @llvm.lifetime.end.p0(i64 8, ptr %10) #8
  call void @llvm.lifetime.end.p0(i64 8, ptr %9) #8
  call void @llvm.lifetime.end.p0(i64 8, ptr %8) #8
  %207 = load i32, ptr %4, align 4
  ret i32 %207
}