; Function Attrs: mustprogress nofree norecurse nosync nounwind memory(argmem: readwrite) uwtable
define internal fastcc noundef i32 @_ZL14decShiftToMostPhii(ptr noundef %0, i32 noundef %1, i32 noundef %2) unnamed_addr #0 {
  %4 = icmp eq i32 %2, 0
  br i1 %4, label %.loopexit, label %5

5:                                                ; preds = %3
  %6 = add nsw i32 %2, %1
  %7 = icmp slt i32 %6, 2
  br i1 %7, label %8, label %15

8:                                                ; preds = %5
  %9 = load i8, ptr %0, align 1, !tbaa !10
  %10 = sext i32 %2 to i64
  %11 = getelementptr inbounds [10 x i32], ptr @_ZL9DECPOWERS, i64 0, i64 %10
  %12 = load i32, ptr %11, align 4, !tbaa !14
  %13 = trunc i32 %12 to i8
  %14 = mul i8 %9, %13
  store i8 %14, ptr %0, align 1, !tbaa !10
  br label %.loopexit

15:                                               ; preds = %5
  %16 = icmp slt i32 %1, 50
  br i1 %16, label %17, label %22

17:                                               ; preds = %15
  %18 = sext i32 %1 to i64
  %19 = getelementptr inbounds [50 x i8], ptr @_ZL8d2utable, i64 0, i64 %18
  %20 = load i8, ptr %19, align 1, !tbaa !10
  %21 = zext i8 %20 to i32
  br label %22

22:                                               ; preds = %15, %17
  %23 = phi i32 [ %21, %17 ], [ %1, %15 ]
  %24 = zext nneg i32 %23 to i64
  %25 = getelementptr inbounds nuw i8, ptr %0, i64 %24
  %26 = getelementptr inbounds i8, ptr %25, i64 -1
  %27 = icmp slt i32 %2, 50
  br i1 %27, label %30, label %28

28:                                               ; preds = %22
  %29 = zext nneg i32 %2 to i64
  br label %36

30:                                               ; preds = %22
  %31 = sext i32 %2 to i64
  %32 = getelementptr inbounds [50 x i8], ptr @_ZL8d2utable, i64 0, i64 %31
  %33 = load i8, ptr %32, align 1, !tbaa !10
  %34 = zext i8 %33 to i64
  %35 = zext i8 %33 to i32
  br label %36

36:                                               ; preds = %28, %30
  %.pn = phi i64 [ %34, %30 ], [ %29, %28 ]
  %37 = phi i32 [ %35, %30 ], [ %2, %28 ]
  %38 = getelementptr inbounds nuw i8, ptr %26, i64 %.pn
  %.neg75 = add i32 %2, 1
  %39 = sub i32 %.neg75, %37
  %40 = sub nsw i32 1, %39
  %41 = icmp eq i32 %39, 1
  br i1 %41, label %.preheader, label %45

.preheader:                                       ; preds = %36
  %.not7383 = icmp ult ptr %26, %0
  br i1 %.not7383, label %.loopexit76, label %.lr.ph86

.lr.ph86:                                         ; preds = %.preheader, %.lr.ph86
  %.06085 = phi ptr [ %44, %.lr.ph86 ], [ %38, %.preheader ]
  %.06484 = phi ptr [ %43, %.lr.ph86 ], [ %26, %.preheader ]
  %42 = load i8, ptr %.06484, align 1, !tbaa !10
  store i8 %42, ptr %.06085, align 1, !tbaa !10
  %43 = getelementptr inbounds i8, ptr %.06484, i64 -1
  %44 = getelementptr inbounds i8, ptr %.06085, i64 -1
  %.not73 = icmp ult ptr %43, %0
  br i1 %.not73, label %.loopexit76, label %.lr.ph86, !llvm.loop !42

45:                                               ; preds = %36
  %46 = icmp samesign ult i32 %6, 50
  br i1 %46, label %47, label %52

47:                                               ; preds = %45
  %48 = zext nneg i32 %6 to i64
  %49 = getelementptr inbounds nuw [50 x i8], ptr @_ZL8d2utable, i64 0, i64 %48
  %50 = load i8, ptr %49, align 1, !tbaa !10
  %51 = zext i8 %50 to i32
  br label %52

52:                                               ; preds = %45, %47
  %53 = phi i32 [ %51, %47 ], [ %6, %45 ]
  %54 = zext nneg i32 %53 to i64
  %55 = getelementptr inbounds nuw i8, ptr %0, i64 %54
  %56 = getelementptr inbounds i8, ptr %55, i64 -1
  %.not78 = icmp ult ptr %26, %0
  br i1 %.not78, label %.loopexit76, label %.lr.ph

.lr.ph:                                           ; preds = %52
  %57 = sext i32 %40 to i64
  %58 = getelementptr inbounds [5 x i32], ptr @_ZL7multies, i64 0, i64 %57
  %59 = load i32, ptr %58, align 4, !tbaa !14
  %60 = getelementptr inbounds [10 x i32], ptr @_ZL9DECPOWERS, i64 0, i64 %57
  %61 = load i32, ptr %60, align 4, !tbaa !14
  %62 = sext i32 %39 to i64
  %63 = getelementptr inbounds [10 x i32], ptr @_ZL9DECPOWERS, i64 0, i64 %62
  %64 = load i32, ptr %63, align 4, !tbaa !14
  br label %65

65:                                               ; preds = %.lr.ph, %76
  %.281 = phi ptr [ %38, %.lr.ph ], [ %79, %76 ]
  %.16280 = phi i32 [ 0, %.lr.ph ], [ %77, %76 ]
  %.16579 = phi ptr [ %26, %.lr.ph ], [ %78, %76 ]
  %66 = load i8, ptr %.16579, align 1, !tbaa !10
  %67 = zext i8 %66 to i32
  %68 = lshr i32 %67, %40
  %69 = mul i32 %68, %59
  %70 = lshr i32 %69, 17
  %71 = mul i32 %70, %61
  %72 = sub i32 %67, %71
  %.not72 = icmp ugt ptr %.281, %56
  br i1 %.not72, label %76, label %73

73:                                               ; preds = %65
  %74 = add i32 %70, %.16280
  %75 = trunc i32 %74 to i8
  store i8 %75, ptr %.281, align 1, !tbaa !10
  br label %76

76:                                               ; preds = %73, %65
  %77 = mul i32 %64, %72
  %78 = getelementptr inbounds i8, ptr %.16579, i64 -1
  %79 = getelementptr inbounds i8, ptr %.281, i64 -1
  %.not = icmp ult ptr %78, %0
  br i1 %.not, label %.loopexit76.loopexit92, label %65, !llvm.loop !43

.loopexit76.loopexit92:                           ; preds = %76
  %80 = trunc i32 %77 to i8
  br label %.loopexit76

.loopexit76:                                      ; preds = %.lr.ph86, %.loopexit76.loopexit92, %52, %.preheader
  %.061 = phi i8 [ 0, %.preheader ], [ 0, %52 ], [ %80, %.loopexit76.loopexit92 ], [ 0, %.lr.ph86 ]
  %.1 = phi ptr [ %38, %.preheader ], [ %38, %52 ], [ %79, %.loopexit76.loopexit92 ], [ %44, %.lr.ph86 ]
  %.not7488 = icmp ult ptr %.1, %0
  br i1 %.not7488, label %.loopexit, label %.lr.ph91

.lr.ph91:                                         ; preds = %.loopexit76, %.lr.ph91
  %.390 = phi ptr [ %81, %.lr.ph91 ], [ %.1, %.loopexit76 ]
  %.26389 = phi i8 [ 0, %.lr.ph91 ], [ %.061, %.loopexit76 ]
  store i8 %.26389, ptr %.390, align 1, !tbaa !10
  %81 = getelementptr inbounds i8, ptr %.390, i64 -1
  %.not74 = icmp ult ptr %81, %0
  br i1 %.not74, label %.loopexit, label %.lr.ph91, !llvm.loop !44

.loopexit:                                        ; preds = %.lr.ph91, %.loopexit76, %3, %8
  %.0 = phi i32 [ %6, %8 ], [ %1, %3 ], [ %6, %.loopexit76 ], [ %6, %.lr.ph91 ]
  ret i32 %.0
}